Certificate:
    Data:
        Version: 3 (0x2)
        Serial Number: 1 (0x1)
    Signature Algorithm: sha1WithRSAEncryption
        Issuer: C=BA, ST=RS, L=Banja Luka, O=Elektrotehnicki fakultet, OU=ETF, CN=RootCA/emailAddress=rootca@gmail.com
        Validity
            Not Before: Jun 26 12:04:21 2021 GMT
            Not After : Jun 26 12:04:21 2022 GMT
        Subject: C=BA, ST=RS, O=Elektrotehnicki fakultet, OU=ETF, CN=Milana/emailAddress=milana@gmail.com
        Subject Public Key Info:
            Public Key Algorithm: rsaEncryption
                Public-Key: (2048 bit)
                Modulus:
                    00:b5:96:f1:63:20:b6:15:85:72:68:63:3f:84:72:
                    e8:19:d5:c6:b9:93:f6:7d:d6:f2:d2:89:9d:51:6c:
                    43:a2:3e:1f:61:4f:b7:a9:70:c0:f4:6e:86:5a:43:
                    b3:26:72:a8:a8:1f:9b:6c:55:c9:52:45:8c:c5:5d:
                    84:d6:a1:9f:a6:d0:f1:0d:0e:52:c4:c7:c9:54:11:
                    03:1f:e2:11:5a:9c:cc:5b:6f:ab:c9:90:a8:07:4a:
                    5b:43:a7:6e:72:5a:01:24:76:02:25:3a:b7:a6:ac:
                    ea:12:18:50:3d:32:19:62:ac:ad:ab:95:a5:da:fd:
                    56:7c:e4:9c:94:e7:55:ed:a5:98:ec:f4:30:6a:7e:
                    3d:3a:2c:49:c9:dc:3c:39:df:df:b8:8f:4a:59:ef:
                    37:eb:9e:65:49:bb:9d:3a:50:4f:f5:19:b7:f1:21:
                    ed:11:97:61:7c:0d:64:c5:ef:65:be:b5:56:47:20:
                    64:25:e2:57:8f:a4:60:87:44:de:7b:e4:13:1b:51:
                    a7:48:f7:ee:d0:fe:d0:26:e0:97:00:86:26:b0:58:
                    1a:2a:18:1e:26:83:17:ba:c1:67:08:05:70:4f:b2:
                    40:eb:07:1d:96:e0:4c:d3:8e:f1:ce:30:6f:84:94:
                    ab:ce:f7:1f:82:0e:35:1b:93:43:cb:89:de:8e:d1:
                    19:fb
                Exponent: 65537 (0x10001)
        X509v3 extensions:
            X509v3 Basic Constraints: 
                CA:FALSE
            X509v3 Key Usage: 
                Digital Signature, Key Encipherment, Data Encipherment
            X509v3 Extended Key Usage: 
                TLS Web Client Authentication, TLS Web Server Authentication
            Netscape Comment: 
                OpenSSL Generated Certificate
            X509v3 Subject Key Identifier: 
                BB:D4:EB:75:4B:48:78:C9:4E:31:C4:8C:51:79:E1:4C:30:6A:91:A2
            X509v3 Authority Key Identifier: 
                keyid:D3:B6:63:2F:EC:6E:DD:00:BD:FD:38:4C:ED:F5:A8:73:E8:83:52:B8

            X509v3 CRL Distribution Points: 

                Full Name:
                  URI:http://192.168.21.89/rootcrl.pem

    Signature Algorithm: sha1WithRSAEncryption
         c1:15:ce:29:9f:a0:5b:0e:07:af:6e:c8:cf:f4:85:6e:c7:9e:
         67:c9:67:20:da:cb:64:9d:3c:79:af:64:57:57:01:12:9f:56:
         f6:c7:2b:bb:6b:20:06:4f:c2:96:68:70:bc:6e:39:a4:1d:d9:
         bc:3d:8c:ba:d0:2e:af:a8:00:63:4a:6c:6d:4f:f5:3e:4b:9f:
         c5:4a:e0:3c:86:09:d0:12:0e:c3:9a:5c:7d:5b:5b:94:19:15:
         c1:6b:83:fc:45:c0:da:1d:9a:53:d7:11:b4:57:8c:db:6b:51:
         d5:ea:85:db:ad:24:bb:d3:f9:66:29:d8:00:b1:9c:28:d2:90:
         aa:ce:e3:ca:d5:35:27:56:fa:fb:0a:20:bf:af:a8:52:27:5c:
         81:7e:4f:79:3e:31:ad:78:1c:79:d7:51:44:23:ac:94:b2:ba:
         90:54:26:79:6b:ee:89:04:8d:53:3f:20:f1:62:9d:8f:34:42:
         fb:e9:8b:a5:10:e6:15:51:e6:48:09:0c:43:9e:4a:e4:8f:f1:
         62:ab:40:7e:f8:70:6f:d6:83:ee:50:8f:82:27:d8:05:4b:dd:
         27:e2:b4:a9:67:94:d7:39:ab:38:df:a1:55:08:50:ef:20:ee:
         28:21:ec:26:0a:40:16:c1:c9:72:f8:79:fd:81:4e:52:3f:38:
         92:2e:3e:17:71:27:8f:a6:f2:00:66:ed:d1:bf:6a:8f:f5:8f:
         5e:f0:7b:b0:aa:d2:a4:e1:42:91:f5:28:ea:69:80:93:cb:e9:
         38:3d:45:be:88:d8:d5:fe:fd:a7:bf:b2:72:53:1e:41:22:29:
         e6:45:75:83:59:dd:61:4d:be:17:a5:9b:ac:85:75:28:4a:1c:
         3a:2e:d0:43:0f:fe:f9:05:c6:e7:04:0f:a0:d4:2f:af:51:0d:
         04:20:e5:0b:e2:fe:d9:6f:83:f6:0b:d4:f4:e3:24:7b:fd:a4:
         d2:ec:fb:2c:a6:9b:42:1b:01:4c:21:27:17:a9:db:71:10:fd:
         c6:43:f9:4d:2e:49:a1:7f:36:79:c4:6a:50:26:9d:02:98:ce:
         4f:98:c1:6f:12:07:bd:52:ee:1b:d8:4f:c8:a5:d5:ab:4d:32:
         e7:6f:fe:14:d1:d1:e6:25:11:55:98:d4:6a:1a:36:17:ec:4b:
         55:e6:25:2f:f6:08:6a:c5:c7:e2:0c:79:01:2f:bc:80:83:06:
         fa:3f:ed:2d:be:8a:e8:38:cc:6c:a3:42:6e:22:1a:12:ea:9e:
         67:7a:f0:31:2a:2e:f7:7e:11:2f:c9:6a:b1:5e:2c:2c:50:6b:
         c1:95:3a:71:f1:95:7b:74:aa:ae:3c:59:05:df:3d:c1:ba:38:
         cb:79:96:1b:ba:0d:dd:f9
-----BEGIN CERTIFICATE-----
MIIFZzCCA0+gAwIBAgIBATANBgkqhkiG9w0BAQUFADCBkjELMAkGA1UEBhMCQkEx
CzAJBgNVBAgTAlJTMRMwEQYDVQQHEwpCYW5qYSBMdWthMSEwHwYDVQQKExhFbGVr
dHJvdGVobmlja2kgZmFrdWx0ZXQxDDAKBgNVBAsTA0VURjEPMA0GA1UEAxMGUm9v
dENBMR8wHQYJKoZIhvcNAQkBFhByb290Y2FAZ21haWwuY29tMB4XDTIxMDYyNjEy
MDQyMVoXDTIyMDYyNjEyMDQyMVowfTELMAkGA1UEBhMCQkExCzAJBgNVBAgTAlJT
MSEwHwYDVQQKExhFbGVrdHJvdGVobmlja2kgZmFrdWx0ZXQxDDAKBgNVBAsTA0VU
RjEPMA0GA1UEAxMGTWlsYW5hMR8wHQYJKoZIhvcNAQkBFhBtaWxhbmFAZ21haWwu
Y29tMIIBIjANBgkqhkiG9w0BAQEFAAOCAQ8AMIIBCgKCAQEAtZbxYyC2FYVyaGM/
hHLoGdXGuZP2fdby0omdUWxDoj4fYU+3qXDA9G6GWkOzJnKoqB+bbFXJUkWMxV2E
1qGfptDxDQ5SxMfJVBEDH+IRWpzMW2+ryZCoB0pbQ6ducloBJHYCJTq3pqzqEhhQ
PTIZYqytq5Wl2v1WfOSclOdV7aWY7PQwan49OixJydw8Od/fuI9KWe83655lSbud
OlBP9Rm38SHtEZdhfA1kxe9lvrVWRyBkJeJXj6Rgh0Tee+QTG1GnSPfu0P7QJuCX
AIYmsFgaKhgeJoMXusFnCAVwT7JA6wcdluBM047xzjBvhJSrzvcfgg41G5NDy4ne
jtEZ+wIDAQABo4HbMIHYMAkGA1UdEwQCMAAwCwYDVR0PBAQDAgSwMB0GA1UdJQQW
MBQGCCsGAQUFBwMCBggrBgEFBQcDATAsBglghkgBhvhCAQ0EHxYdT3BlblNTTCBH
ZW5lcmF0ZWQgQ2VydGlmaWNhdGUwHQYDVR0OBBYEFLvU63VLSHjJTjHEjFF54Uww
apGiMB8GA1UdIwQYMBaAFNO2Yy/sbt0Avf04TO31qHPog1K4MDEGA1UdHwQqMCgw
JqAkoCKGIGh0dHA6Ly8xOTIuMTY4LjIxLjg5L3Jvb3RjcmwucGVtMA0GCSqGSIb3
DQEBBQUAA4ICAQDBFc4pn6BbDgevbsjP9IVux55nyWcg2stknTx5r2RXVwESn1b2
xyu7ayAGT8KWaHC8bjmkHdm8PYy60C6vqABjSmxtT/U+S5/FSuA8hgnQEg7Dmlx9
W1uUGRXBa4P8RcDaHZpT1xG0V4zba1HV6oXbrSS70/lmKdgAsZwo0pCqzuPK1TUn
Vvr7CiC/r6hSJ1yBfk95PjGteBx511FEI6yUsrqQVCZ5a+6JBI1TPyDxYp2PNEL7
6YulEOYVUeZICQxDnkrkj/Fiq0B++HBv1oPuUI+CJ9gFS90n4rSpZ5TXOas436FV
CFDvIO4oIewmCkAWwcly+Hn9gU5SPziSLj4XcSePpvIAZu3Rv2qP9Y9e8HuwqtKk
4UKR9SjqaYCTy+k4PUW+iNjV/v2nv7JyUx5BIinmRXWDWd1hTb4XpZushXUoShw6
LtBDD/75BcbnBA+g1C+vUQ0EIOUL4v7Zb4P2C9T04yR7/aTS7PsspptCGwFMIScX
qdtxEP3GQ/lNLkmhfzZ5xGpQJp0CmM5PmMFvEge9Uu4b2E/IpdWrTTLnb/4U0dHm
JRFVmNRqGjYX7EtV5iUv9ghqxcfiDHkBL7yAgwb6P+0tvoroOMxso0JuIhoS6p5n
evAxKi73fhEvyWqxXiwsUGvBlTpx8ZV7dKquPFkF3z3BujjLeZYbug3d+Q==
-----END CERTIFICATE-----
