Certificate:
    Data:
        Version: 3 (0x2)
        Serial Number: 2 (0x2)
    Signature Algorithm: sha1WithRSAEncryption
        Issuer: C=BA, ST=RS, L=Banja Luka, O=Elektrotehnicki fakultet, OU=ETF, CN=RootCA/emailAddress=rootca@gmail.com
        Validity
            Not Before: Jun 26 12:06:52 2021 GMT
            Not After : Jun 26 12:06:52 2022 GMT
        Subject: C=BA, ST=RS, O=Elektrotehnicki fakultet, OU=ETF, CN=Radenko/emailAddress=radenko@gmail.com
        Subject Public Key Info:
            Public Key Algorithm: rsaEncryption
                Public-Key: (2048 bit)
                Modulus:
                    00:cd:c0:c2:bc:37:90:3e:a6:94:ac:9b:41:db:60:
                    55:b2:82:9f:74:a4:dd:ce:fe:b7:b1:ee:f3:e7:0d:
                    db:01:54:99:ce:2c:31:e2:d9:74:59:06:16:34:5d:
                    b0:2e:f3:5c:0c:d7:ef:06:49:d0:4d:f4:e1:62:6e:
                    0e:05:fc:c2:94:ca:b6:79:17:76:32:5a:00:b4:77:
                    16:ae:d4:03:92:67:47:ee:4f:51:e9:29:ca:e7:b8:
                    b9:d5:35:8e:c9:13:8c:e0:8b:40:ca:ff:e7:df:c7:
                    68:11:c5:ad:46:b7:af:9e:62:cf:dd:85:bf:8f:68:
                    78:3d:70:37:4b:a9:6a:90:f6:03:1d:91:f1:46:f5:
                    e8:77:a9:e4:0e:cd:15:16:f3:f7:94:b0:d6:34:3b:
                    9f:6d:48:75:87:1f:94:75:10:3a:5e:03:9e:b2:aa:
                    08:d1:32:a1:35:c1:66:b7:d7:03:e7:9e:bf:23:28:
                    94:4d:1b:4d:9b:95:7a:d4:3f:9b:8f:d0:55:4f:80:
                    6e:4f:e8:25:1a:f8:ee:2d:05:01:b3:8b:a4:13:79:
                    fc:e8:c8:88:3e:0c:9a:74:eb:8c:bb:03:b7:ac:41:
                    98:51:02:47:e4:86:bf:e1:46:56:10:da:c5:b0:de:
                    af:7f:5b:42:8f:21:9e:a6:f9:74:2c:47:bb:6b:61:
                    d7:af
                Exponent: 65537 (0x10001)
        X509v3 extensions:
            X509v3 Basic Constraints: 
                CA:FALSE
            X509v3 Key Usage: 
                Digital Signature, Key Encipherment, Data Encipherment
            X509v3 Extended Key Usage: 
                TLS Web Client Authentication, TLS Web Server Authentication
            Netscape Comment: 
                OpenSSL Generated Certificate
            X509v3 Subject Key Identifier: 
                9F:77:3E:2F:19:A8:FA:6D:BD:8E:49:2F:C8:32:E8:50:B1:75:02:85
            X509v3 Authority Key Identifier: 
                keyid:D3:B6:63:2F:EC:6E:DD:00:BD:FD:38:4C:ED:F5:A8:73:E8:83:52:B8

            X509v3 CRL Distribution Points: 

                Full Name:
                  URI:http://192.168.21.89/rootcrl.pem

    Signature Algorithm: sha1WithRSAEncryption
         7f:81:be:18:8a:df:53:98:7b:c0:93:b5:21:a7:c4:58:2d:58:
         3c:d2:b9:78:6b:85:bd:ff:88:f2:11:1d:42:40:32:cd:5b:20:
         d1:84:1f:34:32:5b:67:62:0b:a9:e3:87:c1:62:ec:97:be:f7:
         50:fa:40:21:5e:48:2c:8c:2a:d0:05:00:49:ab:94:0b:bf:13:
         ff:05:9b:de:d1:87:f5:7a:e8:52:ff:1f:58:42:19:44:29:24:
         f2:dd:24:df:e7:46:d9:7a:54:bf:bd:f6:e0:bd:c9:1a:ab:d3:
         74:5c:e7:6e:5a:55:ed:e3:75:7b:fb:64:bc:e5:04:74:fb:94:
         2d:7a:d8:09:a8:7f:36:f0:f3:9d:33:9f:05:65:69:79:80:7e:
         ac:20:a0:15:73:d8:32:e0:99:93:f8:af:0b:8f:35:ef:36:01:
         b9:41:b9:d6:15:e9:eb:ec:5b:40:23:43:21:a8:79:2c:b5:e9:
         2a:4b:ae:ad:fb:6b:ff:b1:70:2f:0d:80:11:99:3f:5f:cf:f9:
         24:5a:3e:3c:db:84:c1:f8:a3:af:b8:b8:0d:a5:69:59:b4:45:
         2a:06:05:65:22:06:94:d4:5c:f6:b7:bb:c5:bb:6a:9a:c6:10:
         14:30:ec:4c:a9:db:cb:c1:0a:4e:30:0d:b8:e4:96:46:ad:8b:
         63:a9:f3:d7:b8:10:9b:c8:24:49:fb:23:87:05:97:b7:61:93:
         e3:4b:ea:e2:ea:7e:fe:0f:39:f2:d7:ce:4f:15:30:97:78:ac:
         fc:c5:85:64:ef:85:71:e8:13:ee:01:9c:2e:1e:c1:2c:dd:a9:
         da:c9:46:68:10:ba:79:dc:8e:2e:31:4f:70:0f:d6:4b:e5:8f:
         04:0c:e2:54:59:16:22:27:80:84:b1:15:b2:9f:18:2b:a1:49:
         12:96:f8:0c:40:e5:02:5c:32:da:35:99:26:54:ab:62:d2:72:
         58:2f:b8:d2:5c:61:f9:e6:7a:1b:ea:d6:5c:73:d1:17:11:5c:
         21:cf:56:ff:46:0f:e2:1c:8e:d5:ad:74:12:f0:32:5d:2f:8e:
         73:2c:0e:d9:f3:55:3b:64:1f:a0:0f:45:c7:c2:f7:8c:c5:de:
         f0:73:14:c9:88:9a:04:c9:72:59:fd:73:e4:80:f1:cd:42:41:
         1b:b7:aa:24:c3:49:97:19:62:09:d8:ab:8a:69:83:cf:51:2a:
         e3:20:5d:0c:af:c9:8f:41:cb:1a:36:35:5f:db:df:67:4f:cf:
         b4:3c:c3:e9:d3:80:9e:1b:80:b6:56:25:85:21:e1:1c:2c:6b:
         3d:69:b6:96:25:ce:c2:b3:7f:3f:75:81:15:3d:9e:59:57:a0:
         21:ab:f1:9c:12:83:ea:8a
-----BEGIN CERTIFICATE-----
MIIFaTCCA1GgAwIBAgIBAjANBgkqhkiG9w0BAQUFADCBkjELMAkGA1UEBhMCQkEx
CzAJBgNVBAgTAlJTMRMwEQYDVQQHEwpCYW5qYSBMdWthMSEwHwYDVQQKExhFbGVr
dHJvdGVobmlja2kgZmFrdWx0ZXQxDDAKBgNVBAsTA0VURjEPMA0GA1UEAxMGUm9v
dENBMR8wHQYJKoZIhvcNAQkBFhByb290Y2FAZ21haWwuY29tMB4XDTIxMDYyNjEy
MDY1MloXDTIyMDYyNjEyMDY1MlowfzELMAkGA1UEBhMCQkExCzAJBgNVBAgTAlJT
MSEwHwYDVQQKExhFbGVrdHJvdGVobmlja2kgZmFrdWx0ZXQxDDAKBgNVBAsTA0VU
RjEQMA4GA1UEAxMHUmFkZW5rbzEgMB4GCSqGSIb3DQEJARYRcmFkZW5rb0BnbWFp
bC5jb20wggEiMA0GCSqGSIb3DQEBAQUAA4IBDwAwggEKAoIBAQDNwMK8N5A+ppSs
m0HbYFWygp90pN3O/rex7vPnDdsBVJnOLDHi2XRZBhY0XbAu81wM1+8GSdBN9OFi
bg4F/MKUyrZ5F3YyWgC0dxau1AOSZ0fuT1HpKcrnuLnVNY7JE4zgi0DK/+ffx2gR
xa1Gt6+eYs/dhb+PaHg9cDdLqWqQ9gMdkfFG9eh3qeQOzRUW8/eUsNY0O59tSHWH
H5R1EDpeA56yqgjRMqE1wWa31wPnnr8jKJRNG02blXrUP5uP0FVPgG5P6CUa+O4t
BQGzi6QTefzoyIg+DJp064y7A7esQZhRAkfkhr/hRlYQ2sWw3q9/W0KPIZ6m+XQs
R7trYdevAgMBAAGjgdswgdgwCQYDVR0TBAIwADALBgNVHQ8EBAMCBLAwHQYDVR0l
BBYwFAYIKwYBBQUHAwIGCCsGAQUFBwMBMCwGCWCGSAGG+EIBDQQfFh1PcGVuU1NM
IEdlbmVyYXRlZCBDZXJ0aWZpY2F0ZTAdBgNVHQ4EFgQUn3c+Lxmo+m29jkkvyDLo
ULF1AoUwHwYDVR0jBBgwFoAU07ZjL+xu3QC9/ThM7fWoc+iDUrgwMQYDVR0fBCow
KDAmoCSgIoYgaHR0cDovLzE5Mi4xNjguMjEuODkvcm9vdGNybC5wZW0wDQYJKoZI
hvcNAQEFBQADggIBAH+BvhiK31OYe8CTtSGnxFgtWDzSuXhrhb3/iPIRHUJAMs1b
INGEHzQyW2diC6njh8Fi7Je+91D6QCFeSCyMKtAFAEmrlAu/E/8Fm97Rh/V66FL/
H1hCGUQpJPLdJN/nRtl6VL+99uC9yRqr03Rc525aVe3jdXv7ZLzlBHT7lC162Amo
fzbw850znwVlaXmAfqwgoBVz2DLgmZP4rwuPNe82AblBudYV6evsW0AjQyGoeSy1
6SpLrq37a/+xcC8NgBGZP1/P+SRaPjzbhMH4o6+4uA2laVm0RSoGBWUiBpTUXPa3
u8W7aprGEBQw7Eyp28vBCk4wDbjklkati2Op89e4EJvIJEn7I4cFl7dhk+NL6uLq
fv4POfLXzk8VMJd4rPzFhWTvhXHoE+4BnC4ewSzdqdrJRmgQunncji4xT3AP1kvl
jwQM4lRZFiIngISxFbKfGCuhSRKW+AxA5QJcMto1mSZUq2LSclgvuNJcYfnmehvq
1lxz0RcRXCHPVv9GD+IcjtWtdBLwMl0vjnMsDtnzVTtkH6APRcfC94zF3vBzFMmI
mgTJcln9c+SA8c1CQRu3qiTDSZcZYgnYq4ppg89RKuMgXQyvyY9Byxo2NV/b32dP
z7Q8w+nTgJ4bgLZWJYUh4Rwsaz1ptpYlzsKzfz91gRU9nllXoCGr8ZwSg+qK
-----END CERTIFICATE-----
